target datalayout = "e-m:e-p270:32:32-p271:32:32-p272:64:64-i64:64-i128:128-f80:128-n8:16:32:64-S128"
target triple = "x86_64-pc-linux-gnu"

%struct.Int128_ = type { i64, i64 }
%struct.Int = type { %struct.Int128_, i32 }

; Function Attrs: nounwind uwtable
define dso_local { i64, i64 } @i128_ashr64(i64 %0, i64 %1, i64 noundef %2) #0 {
  %4 = alloca %struct.Int128_, align 8
  %5 = alloca %struct.Int128_, align 8
  %6 = alloca i64, align 8
  %7 = getelementptr inbounds { i64, i64 }, ptr %5, i32 0, i32 0
  store i64 %0, ptr %7, align 8
  %8 = getelementptr inbounds { i64, i64 }, ptr %5, i32 0, i32 1
  store i64 %1, ptr %8, align 8
  store i64 %2, ptr %6, align 8
  %9 = load i64, ptr %6, align 8
  %10 = icmp eq i64 %9, 0
  br i1 %10, label %11, label %12

11:                                               ; preds = %3
  call void @llvm.memcpy.p0.p0.i64(ptr align 8 %4, ptr align 8 %5, i64 16, i1 false)
  br label %70

12:                                               ; preds = %3
  %13 = getelementptr inbounds %struct.Int128_, ptr %5, i32 0, i32 0
  %14 = load i64, ptr %13, align 8
  %15 = lshr i64 %14, 63
  %16 = icmp ne i64 %15, 0
  br i1 %16, label %28, label %17

17:                                               ; preds = %12
  %18 = load i64, ptr %6, align 8
  %19 = getelementptr inbounds { i64, i64 }, ptr %5, i32 0, i32 0
  %20 = load i64, ptr %19, align 8
  %21 = getelementptr inbounds { i64, i64 }, ptr %5, i32 0, i32 1
  %22 = load i64, ptr %21, align 8
  %23 = call { i64, i64 } @i128_lshr64(i64 %20, i64 %22, i64 noundef %18)
  %24 = getelementptr inbounds { i64, i64 }, ptr %4, i32 0, i32 0
  %25 = extractvalue { i64, i64 } %23, 0
  store i64 %25, ptr %24, align 8
  %26 = getelementptr inbounds { i64, i64 }, ptr %4, i32 0, i32 1
  %27 = extractvalue { i64, i64 } %23, 1
  store i64 %27, ptr %26, align 8
  br label %70

28:                                               ; preds = %12
  %29 = load i64, ptr %6, align 8
  %30 = icmp ugt i64 %29, 127
  br i1 %30, label %31, label %34

31:                                               ; preds = %28
  %32 = getelementptr inbounds %struct.Int128_, ptr %4, i32 0, i32 0
  store i64 -1, ptr %32, align 8
  %33 = getelementptr inbounds %struct.Int128_, ptr %4, i32 0, i32 1
  store i64 -1, ptr %33, align 8
  br label %70

34:                                               ; preds = %28
  %35 = load i64, ptr %6, align 8
  %36 = icmp eq i64 %35, 64
  br i1 %36, label %37, label %42

37:                                               ; preds = %34
  %38 = getelementptr inbounds %struct.Int128_, ptr %4, i32 0, i32 0
  store i64 -1, ptr %38, align 8
  %39 = getelementptr inbounds %struct.Int128_, ptr %4, i32 0, i32 1
  %40 = getelementptr inbounds %struct.Int128_, ptr %5, i32 0, i32 0
  %41 = load i64, ptr %40, align 8
  store i64 %41, ptr %39, align 8
  br label %70

42:                                               ; preds = %34
  %43 = load i64, ptr %6, align 8
  %44 = icmp ugt i64 %43, 64
  br i1 %44, label %45, label %53

45:                                               ; preds = %42
  %46 = getelementptr inbounds %struct.Int128_, ptr %4, i32 0, i32 0
  store i64 -1, ptr %46, align 8
  %47 = getelementptr inbounds %struct.Int128_, ptr %4, i32 0, i32 1
  %48 = getelementptr inbounds %struct.Int128_, ptr %5, i32 0, i32 0
  %49 = load i64, ptr %48, align 8
  %50 = load i64, ptr %6, align 8
  %51 = sub i64 %50, 64
  %52 = ashr i64 %49, %51
  store i64 %52, ptr %47, align 8
  br label %70

53:                                               ; preds = %42
  %54 = getelementptr inbounds %struct.Int128_, ptr %4, i32 0, i32 0
  %55 = getelementptr inbounds %struct.Int128_, ptr %5, i32 0, i32 0
  %56 = load i64, ptr %55, align 8
  %57 = load i64, ptr %6, align 8
  %58 = ashr i64 %56, %57
  store i64 %58, ptr %54, align 8
  %59 = getelementptr inbounds %struct.Int128_, ptr %4, i32 0, i32 1
  %60 = getelementptr inbounds %struct.Int128_, ptr %5, i32 0, i32 1
  %61 = load i64, ptr %60, align 8
  %62 = load i64, ptr %6, align 8
  %63 = lshr i64 %61, %62
  %64 = getelementptr inbounds %struct.Int128_, ptr %5, i32 0, i32 0
  %65 = load i64, ptr %64, align 8
  %66 = load i64, ptr %6, align 8
  %67 = sub i64 64, %66
  %68 = shl i64 %65, %67
  %69 = or i64 %63, %68
  store i64 %69, ptr %59, align 8
  br label %70

70:                                               ; preds = %53, %45, %37, %31, %17, %11
  %71 = load { i64, i64 }, ptr %4, align 8
  ret { i64, i64 } %71
}

; Function Attrs: nounwind uwtable
define dso_local { i64, i64 } @i128_lshr64(i64 %0, i64 %1, i64 noundef %2) #0 {
  %4 = alloca %struct.Int128_, align 8
  %5 = alloca %struct.Int128_, align 8
  %6 = alloca i64, align 8
  %7 = getelementptr inbounds { i64, i64 }, ptr %5, i32 0, i32 0
  store i64 %0, ptr %7, align 8
  %8 = getelementptr inbounds { i64, i64 }, ptr %5, i32 0, i32 1
  store i64 %1, ptr %8, align 8
  store i64 %2, ptr %6, align 8
  %9 = load i64, ptr %6, align 8
  %10 = icmp eq i64 %9, 0
  br i1 %10, label %11, label %12

11:                                               ; preds = %3
  call void @llvm.memcpy.p0.p0.i64(ptr align 8 %4, ptr align 8 %5, i64 16, i1 false)
  br label %54

12:                                               ; preds = %3
  %13 = load i64, ptr %6, align 8
  %14 = icmp ugt i64 %13, 127
  br i1 %14, label %15, label %18

15:                                               ; preds = %12
  %16 = getelementptr inbounds %struct.Int128_, ptr %4, i32 0, i32 0
  store i64 0, ptr %16, align 8
  %17 = getelementptr inbounds %struct.Int128_, ptr %4, i32 0, i32 1
  store i64 0, ptr %17, align 8
  br label %54

18:                                               ; preds = %12
  %19 = load i64, ptr %6, align 8
  %20 = icmp eq i64 %19, 64
  br i1 %20, label %21, label %26

21:                                               ; preds = %18
  %22 = getelementptr inbounds %struct.Int128_, ptr %4, i32 0, i32 0
  store i64 0, ptr %22, align 8
  %23 = getelementptr inbounds %struct.Int128_, ptr %4, i32 0, i32 1
  %24 = getelementptr inbounds %struct.Int128_, ptr %5, i32 0, i32 0
  %25 = load i64, ptr %24, align 8
  store i64 %25, ptr %23, align 8
  br label %54

26:                                               ; preds = %18
  %27 = load i64, ptr %6, align 8
  %28 = icmp ugt i64 %27, 64
  br i1 %28, label %29, label %37

29:                                               ; preds = %26
  %30 = getelementptr inbounds %struct.Int128_, ptr %4, i32 0, i32 0
  store i64 0, ptr %30, align 8
  %31 = getelementptr inbounds %struct.Int128_, ptr %4, i32 0, i32 1
  %32 = getelementptr inbounds %struct.Int128_, ptr %5, i32 0, i32 0
  %33 = load i64, ptr %32, align 8
  %34 = load i64, ptr %6, align 8
  %35 = sub i64 %34, 64
  %36 = lshr i64 %33, %35
  store i64 %36, ptr %31, align 8
  br label %54

37:                                               ; preds = %26
  %38 = load i64, ptr %6, align 8
  %39 = getelementptr inbounds %struct.Int128_, ptr %5, i32 0, i32 1
  %40 = load i64, ptr %39, align 8
  %41 = lshr i64 %40, %38
  store i64 %41, ptr %39, align 8
  %42 = getelementptr inbounds %struct.Int128_, ptr %5, i32 0, i32 0
  %43 = load i64, ptr %42, align 8
  %44 = load i64, ptr %6, align 8
  %45 = sub i64 64, %44
  %46 = shl i64 %43, %45
  %47 = getelementptr inbounds %struct.Int128_, ptr %5, i32 0, i32 1
  %48 = load i64, ptr %47, align 8
  %49 = or i64 %48, %46
  store i64 %49, ptr %47, align 8
  %50 = load i64, ptr %6, align 8
  %51 = getelementptr inbounds %struct.Int128_, ptr %5, i32 0, i32 0
  %52 = load i64, ptr %51, align 8
  %53 = lshr i64 %52, %50
  store i64 %53, ptr %51, align 8
  call void @llvm.memcpy.p0.p0.i64(ptr align 8 %4, ptr align 8 %5, i64 16, i1 false)
  br label %54

54:                                               ; preds = %37, %29, %21, %15, %11
  %55 = load { i64, i64 }, ptr %4, align 8
  ret { i64, i64 } %55
}

; Function Attrs: nounwind uwtable
define dso_local { i64, i64 } @i128_shl64(i64 %0, i64 %1, i64 noundef %2) #0 {
  %4 = alloca %struct.Int128_, align 8
  %5 = alloca %struct.Int128_, align 8
  %6 = alloca i64, align 8
  %7 = getelementptr inbounds { i64, i64 }, ptr %5, i32 0, i32 0
  store i64 %0, ptr %7, align 8
  %8 = getelementptr inbounds { i64, i64 }, ptr %5, i32 0, i32 1
  store i64 %1, ptr %8, align 8
  store i64 %2, ptr %6, align 8
  %9 = load i64, ptr %6, align 8
  %10 = icmp eq i64 %9, 0
  br i1 %10, label %11, label %12

11:                                               ; preds = %3
  call void @llvm.memcpy.p0.p0.i64(ptr align 8 %4, ptr align 8 %5, i64 16, i1 false)
  br label %54

12:                                               ; preds = %3
  %13 = load i64, ptr %6, align 8
  %14 = icmp ugt i64 %13, 127
  br i1 %14, label %15, label %18

15:                                               ; preds = %12
  %16 = getelementptr inbounds %struct.Int128_, ptr %4, i32 0, i32 0
  store i64 0, ptr %16, align 8
  %17 = getelementptr inbounds %struct.Int128_, ptr %4, i32 0, i32 1
  store i64 0, ptr %17, align 8
  br label %54

18:                                               ; preds = %12
  %19 = load i64, ptr %6, align 8
  %20 = icmp eq i64 %19, 64
  br i1 %20, label %21, label %26

21:                                               ; preds = %18
  %22 = getelementptr inbounds %struct.Int128_, ptr %4, i32 0, i32 0
  %23 = getelementptr inbounds %struct.Int128_, ptr %5, i32 0, i32 1
  %24 = load i64, ptr %23, align 8
  store i64 %24, ptr %22, align 8
  %25 = getelementptr inbounds %struct.Int128_, ptr %4, i32 0, i32 1
  store i64 0, ptr %25, align 8
  br label %54

26:                                               ; preds = %18
  %27 = load i64, ptr %6, align 8
  %28 = icmp ugt i64 %27, 64
  br i1 %28, label %29, label %37

29:                                               ; preds = %26
  %30 = getelementptr inbounds %struct.Int128_, ptr %4, i32 0, i32 0
  %31 = getelementptr inbounds %struct.Int128_, ptr %5, i32 0, i32 1
  %32 = load i64, ptr %31, align 8
  %33 = load i64, ptr %6, align 8
  %34 = sub i64 %33, 64
  %35 = shl i64 %32, %34
  store i64 %35, ptr %30, align 8
  %36 = getelementptr inbounds %struct.Int128_, ptr %4, i32 0, i32 1
  store i64 0, ptr %36, align 8
  br label %54

37:                                               ; preds = %26
  %38 = getelementptr inbounds %struct.Int128_, ptr %4, i32 0, i32 0
  %39 = getelementptr inbounds %struct.Int128_, ptr %5, i32 0, i32 0
  %40 = load i64, ptr %39, align 8
  %41 = load i64, ptr %6, align 8
  %42 = shl i64 %40, %41
  %43 = getelementptr inbounds %struct.Int128_, ptr %5, i32 0, i32 1
  %44 = load i64, ptr %43, align 8
  %45 = load i64, ptr %6, align 8
  %46 = sub i64 64, %45
  %47 = lshr i64 %44, %46
  %48 = or i64 %42, %47
  store i64 %48, ptr %38, align 8
  %49 = getelementptr inbounds %struct.Int128_, ptr %4, i32 0, i32 1
  %50 = getelementptr inbounds %struct.Int128_, ptr %5, i32 0, i32 1
  %51 = load i64, ptr %50, align 8
  %52 = load i64, ptr %6, align 8
  %53 = shl i64 %51, %52
  store i64 %53, ptr %49, align 8
  br label %54

54:                                               ; preds = %37, %29, %21, %15, %11
  %55 = load { i64, i64 }, ptr %4, align 8
  ret { i64, i64 } %55
}

; Function Attrs: nounwind uwtable
define dso_local void @int_conv(ptr dead_on_unwind noalias writable sret(%struct.Int) align 8 %0, ptr noundef byval(%struct.Int) align 8 %1, i32 noundef %2) #0 {
  %4 = alloca i32, align 4
  %5 = alloca i32, align 4
  %6 = alloca i32, align 4
  %7 = alloca i32, align 4
  %8 = alloca i32, align 4
  %9 = alloca i8, align 1
  %10 = alloca i8, align 1
  %11 = alloca i64, align 8
  %12 = alloca %struct.Int128_, align 8
  %13 = alloca i64, align 8
  %14 = alloca %struct.Int128_, align 8
  %15 = alloca %struct.Int128_, align 8
  %16 = alloca %struct.Int128_, align 8
  store i32 %2, ptr %6, align 4
  %17 = getelementptr inbounds %struct.Int, ptr %1, i32 0, i32 1
  %18 = load i32, ptr %17, align 8
  %19 = call i32 @type_kind_bitsize(i32 noundef %18)
  store i32 %19, ptr %7, align 4
  %20 = load i32, ptr %6, align 4
  %21 = call i32 @type_kind_bitsize(i32 noundef %20)
  store i32 %21, ptr %8, align 4
  %22 = load i32, ptr %8, align 4
  %23 = icmp eq i32 %22, 128
  br i1 %23, label %24, label %29

24:                                               ; preds = %3
  %25 = getelementptr inbounds %struct.Int, ptr %0, i32 0, i32 0
  %26 = getelementptr inbounds %struct.Int, ptr %1, i32 0, i32 0
  call void @llvm.memcpy.p0.p0.i64(ptr align 8 %25, ptr align 8 %26, i64 16, i1 false)
  %27 = getelementptr inbounds %struct.Int, ptr %0, i32 0, i32 1
  %28 = load i32, ptr %6, align 4
  store i32 %28, ptr %27, align 8
  br label %151

29:                                               ; preds = %3
  %30 = getelementptr inbounds %struct.Int, ptr %1, i32 0, i32 1
  %31 = load i32, ptr %30, align 8
  store i32 %31, ptr %4, align 4
  %32 = load i32, ptr %4, align 4
  %33 = icmp uge i32 %32, 3
  br i1 %33, label %34, label %37

34:                                               ; preds = %29
  %35 = load i32, ptr %4, align 4
  %36 = icmp ult i32 %35, 8
  br label %37

37:                                               ; preds = %34, %29
  %38 = phi i1 [ false, %29 ], [ %36, %34 ]
  %39 = zext i1 %38 to i8
  store i8 %39, ptr %9, align 1
  %40 = load i32, ptr %6, align 4
  store i32 %40, ptr %5, align 4
  %41 = load i32, ptr %5, align 4
  %42 = icmp uge i32 %41, 3
  br i1 %42, label %43, label %46

43:                                               ; preds = %37
  %44 = load i32, ptr %5, align 4
  %45 = icmp ult i32 %44, 8
  br label %46

46:                                               ; preds = %43, %37
  %47 = phi i1 [ false, %37 ], [ %45, %43 ]
  %48 = zext i1 %47 to i8
  store i8 %48, ptr %10, align 1
  %49 = load i32, ptr %7, align 4
  %50 = load i32, ptr %8, align 4
  %51 = icmp slt i32 %49, %50
  br i1 %51, label %52, label %96

52:                                               ; preds = %46
  %53 = load i8, ptr %10, align 1
  %54 = trunc i8 %53 to i1
  br i1 %54, label %63, label %55

55:                                               ; preds = %52
  %56 = load i8, ptr %10, align 1
  %57 = trunc i8 %56 to i1
  %58 = zext i1 %57 to i32
  %59 = load i8, ptr %9, align 1
  %60 = trunc i8 %59 to i1
  %61 = zext i1 %60 to i32
  %62 = icmp eq i32 %58, %61
  br i1 %62, label %63, label %68

63:                                               ; preds = %55, %52
  %64 = getelementptr inbounds %struct.Int, ptr %0, i32 0, i32 0
  %65 = getelementptr inbounds %struct.Int, ptr %1, i32 0, i32 0
  call void @llvm.memcpy.p0.p0.i64(ptr align 8 %64, ptr align 8 %65, i64 16, i1 false)
  %66 = getelementptr inbounds %struct.Int, ptr %0, i32 0, i32 1
  %67 = load i32, ptr %6, align 4
  store i32 %67, ptr %66, align 8
  br label %151

68:                                               ; preds = %55
  %69 = load i32, ptr %8, align 4
  %70 = sub nsw i32 128, %69
  %71 = sext i32 %70 to i64
  store i64 %71, ptr %11, align 8
  %72 = getelementptr inbounds %struct.Int, ptr %0, i32 0, i32 0
  %73 = getelementptr inbounds %struct.Int, ptr %1, i32 0, i32 0
  %74 = load i64, ptr %11, align 8
  %75 = getelementptr inbounds { i64, i64 }, ptr %73, i32 0, i32 0
  %76 = load i64, ptr %75, align 8
  %77 = getelementptr inbounds { i64, i64 }, ptr %73, i32 0, i32 1
  %78 = load i64, ptr %77, align 8
  %79 = call { i64, i64 } @i128_shl64(i64 %76, i64 %78, i64 noundef %74)
  %80 = getelementptr inbounds { i64, i64 }, ptr %12, i32 0, i32 0
  %81 = extractvalue { i64, i64 } %79, 0
  store i64 %81, ptr %80, align 8
  %82 = getelementptr inbounds { i64, i64 }, ptr %12, i32 0, i32 1
  %83 = extractvalue { i64, i64 } %79, 1
  store i64 %83, ptr %82, align 8
  %84 = load i64, ptr %11, align 8
  %85 = getelementptr inbounds { i64, i64 }, ptr %12, i32 0, i32 0
  %86 = load i64, ptr %85, align 8
  %87 = getelementptr inbounds { i64, i64 }, ptr %12, i32 0, i32 1
  %88 = load i64, ptr %87, align 8
  %89 = call { i64, i64 } @i128_lshr64(i64 %86, i64 %88, i64 noundef %84)
  %90 = getelementptr inbounds { i64, i64 }, ptr %72, i32 0, i32 0
  %91 = extractvalue { i64, i64 } %89, 0
  store i64 %91, ptr %90, align 8
  %92 = getelementptr inbounds { i64, i64 }, ptr %72, i32 0, i32 1
  %93 = extractvalue { i64, i64 } %89, 1
  store i64 %93, ptr %92, align 8
  %94 = getelementptr inbounds %struct.Int, ptr %0, i32 0, i32 1
  %95 = load i32, ptr %6, align 4
  store i32 %95, ptr %94, align 8
  br label %151

96:                                               ; preds = %46
  %97 = load i32, ptr %8, align 4
  %98 = sub nsw i32 128, %97
  %99 = sext i32 %98 to i64
  store i64 %99, ptr %13, align 8
  %100 = getelementptr inbounds %struct.Int, ptr %1, i32 0, i32 0
  %101 = load i64, ptr %13, align 8
  %102 = getelementptr inbounds { i64, i64 }, ptr %100, i32 0, i32 0
  %103 = load i64, ptr %102, align 8
  %104 = getelementptr inbounds { i64, i64 }, ptr %100, i32 0, i32 1
  %105 = load i64, ptr %104, align 8
  %106 = call { i64, i64 } @i128_shl64(i64 %103, i64 %105, i64 noundef %101)
  %107 = getelementptr inbounds { i64, i64 }, ptr %15, i32 0, i32 0
  %108 = extractvalue { i64, i64 } %106, 0
  store i64 %108, ptr %107, align 8
  %109 = getelementptr inbounds { i64, i64 }, ptr %15, i32 0, i32 1
  %110 = extractvalue { i64, i64 } %106, 1
  store i64 %110, ptr %109, align 8
  %111 = load i64, ptr %13, align 8
  %112 = getelementptr inbounds { i64, i64 }, ptr %15, i32 0, i32 0
  %113 = load i64, ptr %112, align 8
  %114 = getelementptr inbounds { i64, i64 }, ptr %15, i32 0, i32 1
  %115 = load i64, ptr %114, align 8
  %116 = call { i64, i64 } @i128_lshr64(i64 %113, i64 %115, i64 noundef %111)
  %117 = getelementptr inbounds { i64, i64 }, ptr %14, i32 0, i32 0
  %118 = extractvalue { i64, i64 } %116, 0
  store i64 %118, ptr %117, align 8
  %119 = getelementptr inbounds { i64, i64 }, ptr %14, i32 0, i32 1
  %120 = extractvalue { i64, i64 } %116, 1
  store i64 %120, ptr %119, align 8
  %121 = load i8, ptr %10, align 1
  %122 = trunc i8 %121 to i1
  br i1 %122, label %123, label %147

123:                                              ; preds = %96
  %124 = getelementptr inbounds %struct.Int, ptr %0, i32 0, i32 0
  %125 = load i64, ptr %13, align 8
  %126 = getelementptr inbounds { i64, i64 }, ptr %14, i32 0, i32 0
  %127 = load i64, ptr %126, align 8
  %128 = getelementptr inbounds { i64, i64 }, ptr %14, i32 0, i32 1
  %129 = load i64, ptr %128, align 8
  %130 = call { i64, i64 } @i128_shl64(i64 %127, i64 %129, i64 noundef %125)
  %131 = getelementptr inbounds { i64, i64 }, ptr %16, i32 0, i32 0
  %132 = extractvalue { i64, i64 } %130, 0
  store i64 %132, ptr %131, align 8
  %133 = getelementptr inbounds { i64, i64 }, ptr %16, i32 0, i32 1
  %134 = extractvalue { i64, i64 } %130, 1
  store i64 %134, ptr %133, align 8
  %135 = load i64, ptr %13, align 8
  %136 = getelementptr inbounds { i64, i64 }, ptr %16, i32 0, i32 0
  %137 = load i64, ptr %136, align 8
  %138 = getelementptr inbounds { i64, i64 }, ptr %16, i32 0, i32 1
  %139 = load i64, ptr %138, align 8
  %140 = call { i64, i64 } @i128_ashr64(i64 %137, i64 %139, i64 noundef %135)
  %141 = getelementptr inbounds { i64, i64 }, ptr %124, i32 0, i32 0
  %142 = extractvalue { i64, i64 } %140, 0
  store i64 %142, ptr %141, align 8
  %143 = getelementptr inbounds { i64, i64 }, ptr %124, i32 0, i32 1
  %144 = extractvalue { i64, i64 } %140, 1
  store i64 %144, ptr %143, align 8
  %145 = getelementptr inbounds %struct.Int, ptr %0, i32 0, i32 1
  %146 = load i32, ptr %6, align 4
  store i32 %146, ptr %145, align 8
  br label %151

147:                                              ; preds = %96
  %148 = getelementptr inbounds %struct.Int, ptr %0, i32 0, i32 0
  call void @llvm.memcpy.p0.p0.i64(ptr align 8 %148, ptr align 8 %14, i64 16, i1 false)
  %149 = getelementptr inbounds %struct.Int, ptr %0, i32 0, i32 1
  %150 = load i32, ptr %6, align 4
  store i32 %150, ptr %149, align 8
  br label %151

151:                                              ; preds = %147, %123, %68, %63, %24
  ret void
}