; Function Attrs: nounwind uwtable
define dso_local void @int_conv(ptr dead_on_unwind noalias writable writeonly sret(%struct.Int) align 8 captures(none) initializes((0, 20)) %0, ptr noundef readonly byval(%struct.Int) align 8 captures(none) %1, i32 noundef %2) local_unnamed_addr #0 {
  %4 = getelementptr inbounds nuw i8, ptr %1, i64 16
  %5 = load i32, ptr %4, align 8
  %6 = tail call i32 @type_kind_bitsize(i32 noundef %5) #19
  %7 = tail call i32 @type_kind_bitsize(i32 noundef %2) #19
  %8 = icmp eq i32 %7, 128
  br i1 %8, label %9, label %10

9:                                                ; preds = %3
  call void @llvm.memcpy.p0.p0.i64(ptr noundef nonnull align 8 dereferenceable(16) %0, ptr noundef nonnull align 8 dereferenceable(16) %1, i64 16, i1 false)
  br label %98

10:                                               ; preds = %3
  %11 = add i32 %2, -3
  %12 = icmp ult i32 %11, 5
  %13 = icmp slt i32 %6, %7
  br i1 %13, label %14, label %44

14:                                               ; preds = %10
  %15 = add i32 %5, -8
  %16 = icmp ult i32 %15, -5
  %brmerge = or i1 %12, %16
  br i1 %brmerge, label %17, label %18

17:                                               ; preds = %14
  call void @llvm.memcpy.p0.p0.i64(ptr noundef nonnull align 8 dereferenceable(16) %0, ptr noundef nonnull align 8 dereferenceable(16) %1, i64 16, i1 false)
  br label %98

18:                                               ; preds = %14
  %19 = sub nsw i32 128, %7
  %20 = sext i32 %19 to i64
  %21 = load i64, ptr %1, align 8
  %22 = getelementptr inbounds nuw i8, ptr %1, i64 8
  %23 = load i64, ptr %22, align 8
  %24 = icmp ugt i32 %19, 127
  br i1 %24, label %i128_lshr64.exit, label %25

25:                                               ; preds = %18
  %26 = icmp eq i32 %7, 64
  br i1 %26, label %i128_lshr64.exit, label %27

27:                                               ; preds = %25
  %28 = icmp samesign ugt i32 %19, 64
  br i1 %28, label %29, label %33

29:                                               ; preds = %27
  %30 = add nsw i64 %20, -64
  %31 = lshr i64 -1, %30
  %32 = and i64 %31, %23
  br label %i128_lshr64.exit

33:                                               ; preds = %27
  %34 = shl i64 %21, %20
  %35 = sub nuw nsw i64 64, %20
  %36 = lshr i64 %23, %35
  %37 = or disjoint i64 %36, %34
  %38 = lshr i64 -1, %20
  %39 = and i64 %23, %38
  %40 = shl i64 %37, %35
  %41 = add nuw nsw i64 %40, %39
  %42 = lshr i64 %37, %20
  br label %i128_lshr64.exit

i128_lshr64.exit:                                 ; preds = %18, %25, %29, %33
  %.sroa.015.0.i = phi i64 [ 0, %29 ], [ %42, %33 ], [ 0, %25 ], [ 0, %18 ]
  %.sroa.6.0.i33 = phi i64 [ %32, %29 ], [ %41, %33 ], [ %23, %25 ], [ 0, %18 ]
  store i64 %.sroa.015.0.i, ptr %0, align 8
  %43 = getelementptr inbounds nuw i8, ptr %0, i64 8
  store i64 %.sroa.6.0.i33, ptr %43, align 8
  br label %98

44:                                               ; preds = %10
  %45 = sub nsw i32 128, %7
  %46 = sext i32 %45 to i64
  %47 = load i64, ptr %1, align 8
  %48 = getelementptr inbounds nuw i8, ptr %1, i64 8
  %49 = load i64, ptr %48, align 8
  %50 = icmp ugt i32 %45, 127
  br i1 %50, label %i128_lshr64.exit45.thread, label %51

51:                                               ; preds = %44
  %52 = icmp eq i32 %7, 64
  br i1 %52, label %i128_lshr64.exit45, label %53

53:                                               ; preds = %51
  %54 = icmp samesign ugt i32 %45, 64
  br i1 %54, label %55, label %59

55:                                               ; preds = %53
  %56 = add nsw i64 %46, -64
  %57 = lshr i64 -1, %56
  %58 = and i64 %57, %49
  br label %i128_lshr64.exit45

59:                                               ; preds = %53
  %60 = shl i64 %47, %46
  %61 = sub nuw nsw i64 64, %46
  %62 = lshr i64 %49, %61
  %63 = or disjoint i64 %62, %60
  %64 = lshr i64 -1, %46
  %65 = and i64 %49, %64
  %66 = shl i64 %63, %61
  %67 = add nuw nsw i64 %66, %65
  %68 = lshr i64 %63, %46
  br label %i128_lshr64.exit45

i128_lshr64.exit45:                               ; preds = %51, %55, %59
  %.sroa.015.0.i41 = phi i64 [ 0, %55 ], [ %68, %59 ], [ 0, %51 ]
  %.sroa.6.0.i42 = phi i64 [ %58, %55 ], [ %67, %59 ], [ %49, %51 ]
  br i1 %12, label %69, label %97

i128_lshr64.exit45.thread:                        ; preds = %44
  br i1 %12, label %i128_ashr64.exit, label %97

69:                                               ; preds = %i128_lshr64.exit45
  %70 = icmp eq i32 %7, 64
  br i1 %70, label %.thread126, label %71

71:                                               ; preds = %69
  %72 = icmp samesign ugt i32 %45, 64
  br i1 %72, label %73, label %.thread151

73:                                               ; preds = %71
  %74 = add nsw i64 %46, -64
  %75 = shl i64 %.sroa.6.0.i42, %74
  %.not.i = icmp sgt i64 %75, -1
  %76 = add nsw i64 %46, -64
  br i1 %.not.i, label %82, label %89

.thread151:                                       ; preds = %71
  %77 = shl i64 %.sroa.015.0.i41, %46
  %78 = sub nuw nsw i64 64, %46
  %79 = lshr i64 %.sroa.6.0.i42, %78
  %80 = or disjoint i64 %79, %77
  %81 = shl i64 %.sroa.6.0.i42, %46
  %.not.i154 = icmp sgt i64 %80, -1
  br i1 %.not.i154, label %.thread159, label %.thread164

.thread126:                                       ; preds = %69
  %.sroa.6.0.i42.lobit = ashr i64 %.sroa.6.0.i42, 63
  br label %i128_ashr64.exit

82:                                               ; preds = %73
  %83 = lshr i64 %75, %76
  br label %i128_ashr64.exit

.thread159:                                       ; preds = %.thread151
  %84 = lshr exact i64 %81, %46
  %85 = sub nuw nsw i64 64, %46
  %86 = shl i64 %80, %85
  %87 = or disjoint i64 %84, %86
  %88 = lshr i64 %80, %46
  br label %i128_ashr64.exit

89:                                               ; preds = %73
  %90 = ashr i64 %75, %76
  br label %i128_ashr64.exit

.thread164:                                       ; preds = %.thread151
  %91 = ashr i64 %80, %46
  %92 = lshr exact i64 %81, %46
  %93 = sub nuw nsw i64 64, %46
  %94 = shl i64 %80, %93
  %95 = or disjoint i64 %92, %94
  br label %i128_ashr64.exit

i128_ashr64.exit:                                 ; preds = %i128_lshr64.exit45.thread, %.thread126, %82, %.thread159, %89, %.thread164
  %.sroa.015.0.i51 = phi i64 [ -1, %89 ], [ %91, %.thread164 ], [ 0, %82 ], [ %88, %.thread159 ], [ %.sroa.6.0.i42.lobit, %.thread126 ], [ 0, %i128_lshr64.exit45.thread ]
  %.sroa.7.0.i = phi i64 [ %90, %89 ], [ %95, %.thread164 ], [ %83, %82 ], [ %87, %.thread159 ], [ %.sroa.6.0.i42, %.thread126 ], [ 0, %i128_lshr64.exit45.thread ]
  store i64 %.sroa.015.0.i51, ptr %0, align 8
  %96 = getelementptr inbounds nuw i8, ptr %0, i64 8
  store i64 %.sroa.7.0.i, ptr %96, align 8
  br label %98

97:                                               ; preds = %i128_lshr64.exit45.thread, %i128_lshr64.exit45
  %.sroa.6.0.i42148 = phi i64 [ 0, %i128_lshr64.exit45.thread ], [ %.sroa.6.0.i42, %i128_lshr64.exit45 ]
  %.sroa.015.0.i41146 = phi i64 [ 0, %i128_lshr64.exit45.thread ], [ %.sroa.015.0.i41, %i128_lshr64.exit45 ]
  store i64 %.sroa.015.0.i41146, ptr %0, align 8
  %.sroa.3.0..sroa_idx = getelementptr inbounds nuw i8, ptr %0, i64 8
  store i64 %.sroa.6.0.i42148, ptr %.sroa.3.0..sroa_idx, align 8
  br label %98

98:                                               ; preds = %97, %i128_ashr64.exit, %i128_lshr64.exit, %17, %9
  %99 = getelementptr inbounds nuw i8, ptr %0, i64 16
  store i32 %2, ptr %99, align 8
  ret void
}